target datalayout = "e-m:e-p270:32:32-p271:32:32-p272:64:64-i64:64-i128:128-f80:128-n8:16:32:64-S128"
target triple = "x86_64-pc-linux-gnu"

%struct.__ncnn_allocator_t = type { ptr, ptr, ptr }
%"class.ncnn::Mat" = type { ptr, ptr, i64, i32, ptr, i32, i32, i32, i32, i32, i64 }

; Function Attrs: mustprogress uwtable
define hidden ptr @ncnn_mat_create_4d_elem(i32 noundef %0, i32 noundef %1, i32 noundef %2, i32 noundef %3, i64 noundef %4, i32 noundef %5, ptr noundef %6) #1 personality ptr @__gxx_personality_v0 {
  %8 = alloca ptr, align 8
  %9 = alloca i32, align 4
  %10 = alloca i32, align 4
  %11 = alloca i32, align 4
  %12 = alloca i32, align 4
  %13 = alloca i64, align 8
  %14 = alloca i32, align 4
  %15 = alloca ptr, align 8
  %16 = alloca i32, align 4
  %17 = alloca i32, align 4
  %18 = alloca i32, align 4
  %19 = alloca i32, align 4
  %20 = alloca i64, align 8
  %21 = alloca i32, align 4
  %22 = alloca ptr, align 8
  %23 = alloca ptr, align 8
  %24 = alloca i32, align 4
  store i32 %0, ptr %16, align 4
  store i32 %1, ptr %17, align 4
  store i32 %2, ptr %18, align 4
  store i32 %3, ptr %19, align 4
  store i64 %4, ptr %20, align 8
  store i32 %5, ptr %21, align 4
  store ptr %6, ptr %22, align 8
  %25 = call noalias noundef nonnull ptr @_Znwm(i64 noundef 72) #13
  %26 = load i32, ptr %16, align 4
  %27 = load i32, ptr %17, align 4
  %28 = load i32, ptr %18, align 4
  %29 = load i32, ptr %19, align 4
  %30 = load i64, ptr %20, align 8
  %31 = load i32, ptr %21, align 4
  %32 = load ptr, ptr %22, align 8
  %33 = icmp ne ptr %32, null
  br i1 %33, label %34, label %38

34:                                               ; preds = %7
  %35 = load ptr, ptr %22, align 8
  %36 = getelementptr inbounds nuw %struct.__ncnn_allocator_t, ptr %35, i32 0, i32 0
  %37 = load ptr, ptr %36, align 8
  br label %39

38:                                               ; preds = %7
  br label %39

39:                                               ; preds = %38, %34
  %40 = phi ptr [ %37, %34 ], [ null, %38 ]
  store ptr %25, ptr %8, align 8
  store i32 %26, ptr %9, align 4
  store i32 %27, ptr %10, align 4
  store i32 %28, ptr %11, align 4
  store i32 %29, ptr %12, align 4
  store i64 %30, ptr %13, align 8
  store i32 %31, ptr %14, align 4
  store ptr %40, ptr %15, align 8
  %41 = load ptr, ptr %8, align 8
  store ptr null, ptr %41, align 8
  %42 = getelementptr inbounds nuw %"class.ncnn::Mat", ptr %41, i32 0, i32 1
  store ptr null, ptr %42, align 8
  %43 = getelementptr inbounds nuw %"class.ncnn::Mat", ptr %41, i32 0, i32 2
  store i64 0, ptr %43, align 8
  %44 = getelementptr inbounds nuw %"class.ncnn::Mat", ptr %41, i32 0, i32 3
  store i32 0, ptr %44, align 8
  %45 = getelementptr inbounds nuw %"class.ncnn::Mat", ptr %41, i32 0, i32 4
  store ptr null, ptr %45, align 8
  %46 = getelementptr inbounds nuw %"class.ncnn::Mat", ptr %41, i32 0, i32 5
  store i32 0, ptr %46, align 8
  %47 = getelementptr inbounds nuw %"class.ncnn::Mat", ptr %41, i32 0, i32 6
  store i32 0, ptr %47, align 4
  %48 = getelementptr inbounds nuw %"class.ncnn::Mat", ptr %41, i32 0, i32 7
  store i32 0, ptr %48, align 8
  %49 = getelementptr inbounds nuw %"class.ncnn::Mat", ptr %41, i32 0, i32 8
  store i32 0, ptr %49, align 4
  %50 = getelementptr inbounds nuw %"class.ncnn::Mat", ptr %41, i32 0, i32 9
  store i32 0, ptr %50, align 8
  %51 = getelementptr inbounds nuw %"class.ncnn::Mat", ptr %41, i32 0, i32 10
  store i64 0, ptr %51, align 8
  %52 = load i32, ptr %9, align 4
  %53 = load i32, ptr %10, align 4
  %54 = load i32, ptr %11, align 4
  %55 = load i32, ptr %12, align 4
  %56 = load i64, ptr %13, align 8
  %57 = load i32, ptr %14, align 4
  %58 = load ptr, ptr %15, align 8
  invoke void @_ZN4ncnn3Mat6createEiiiimiPNS_9AllocatorE(ptr noundef nonnull align 8 dereferenceable(72) %41, i32 noundef %52, i32 noundef %53, i32 noundef %54, i32 noundef %55, i64 noundef %56, i32 noundef %57, ptr noundef %58)
          to label %59 unwind label %61

59:                                               ; preds = %39
  br label %60

60:                                               ; preds = %59
  ret ptr %25

61:                                               ; preds = %39
  %62 = landingpad { ptr, i32 }
          cleanup
  %63 = extractvalue { ptr, i32 } %62, 0
  store ptr %63, ptr %23, align 8
  %64 = extractvalue { ptr, i32 } %62, 1
  store i32 %64, ptr %24, align 4
  call void @_ZdlPvm(ptr noundef %25, i64 noundef 72) #14
  br label %65

65:                                               ; preds = %61
  %66 = load ptr, ptr %23, align 8
  %67 = load i32, ptr %24, align 4
  %68 = insertvalue { ptr, i32 } poison, ptr %66, 0
  %69 = insertvalue { ptr, i32 } %68, i32 %67, 1
  resume { ptr, i32 } %69
}