; Function Attrs: mustprogress uwtable
define hidden noundef nonnull ptr @ncnn_mat_create_4d_elem(i32 noundef %0, i32 noundef %1, i32 noundef %2, i32 noundef %3, i64 noundef %4, i32 noundef %5, ptr noundef readonly %6) local_unnamed_addr #1 personality ptr @__gxx_personality_v0 {
  %8 = tail call noalias noundef nonnull dereferenceable(72) ptr @_Znwm(i64 noundef 72) #24
  %.not = icmp eq ptr %6, null
  br i1 %.not, label %11, label %9

9:                                                ; preds = %7
  %10 = load ptr, ptr %6, align 8
  br label %11

11:                                               ; preds = %7, %9
  %12 = phi ptr [ %10, %9 ], [ null, %7 ]
  %13 = getelementptr inbounds nuw i8, ptr %8, i64 32
  %14 = getelementptr inbounds nuw i8, ptr %8, i64 64
  store i64 0, ptr %14, align 8
  tail call void @llvm.memset.p0.i64(ptr noundef nonnull align 8 dereferenceable(28) %8, i8 0, i64 28, i1 false)
  tail call void @llvm.memset.p0.i64(ptr noundef nonnull align 8 dereferenceable(28) %13, i8 0, i64 28, i1 false)
  invoke void @_ZN4ncnn3Mat6createEiiiimiPNS_9AllocatorE(ptr noundef nonnull align 8 dereferenceable(72) %8, i32 noundef %0, i32 noundef %1, i32 noundef %2, i32 noundef %3, i64 noundef %4, i32 noundef %5, ptr noundef %12)
          to label %15 unwind label %16

15:                                               ; preds = %11
  ret ptr %8

16:                                               ; preds = %11
  %17 = landingpad { ptr, i32 }
          cleanup
  tail call void @_ZdlPvm(ptr noundef nonnull %8, i64 noundef 72) #25
  resume { ptr, i32 } %17
}